; Function Attrs: nounwind sspstrong uwtable
define internal fastcc i64 @wadd(i64 noundef %0, i64 noundef %1) unnamed_addr #1 {
  %3 = and i64 %0, 1
  %4 = and i64 %3, %1
  %or.cond.not.i = icmp eq i64 %4, 0
  br i1 %or.cond.not.i, label %15, label %5

5:                                                ; preds = %2
  %6 = ashr i64 %0, 1
  %7 = ashr i64 %1, 1
  %8 = add nsw i64 %7, %6
  %9 = add i64 %8, 4611686018427387904
  %or.cond.i.i = icmp sgt i64 %9, -1
  br i1 %or.cond.i.i, label %10, label %13

10:                                               ; preds = %5
  %11 = shl nsw i64 %8, 1
  %12 = or disjoint i64 %11, 1
  br label %addv.exit

13:                                               ; preds = %5
  %14 = tail call i64 @rb_int2big(i64 noundef %8) #21
  br label %addv.exit

15:                                               ; preds = %2
  %16 = icmp eq i64 %0, 0
  %17 = and i64 %0, 7
  %18 = icmp ne i64 %17, 0
  %19 = or i1 %16, %18
  br i1 %19, label %rbimpl_RB_TYPE_P_fastpath.exit.thread.i, label %rbimpl_RB_TYPE_P_fastpath.exit.i

rbimpl_RB_TYPE_P_fastpath.exit.i:                 ; preds = %15
  %20 = inttoptr i64 %0 to ptr
  %21 = load i64, ptr %20, align 8, !tbaa !15
  %22 = and i64 %21, 31
  %23 = icmp eq i64 %22, 10
  br i1 %23, label %24, label %rbimpl_RB_TYPE_P_fastpath.exit.thread.i

24:                                               ; preds = %rbimpl_RB_TYPE_P_fastpath.exit.i
  %25 = tail call i64 @rb_big_plus(i64 noundef %0, i64 noundef %1) #21
  br label %addv.exit

rbimpl_RB_TYPE_P_fastpath.exit.thread.i:          ; preds = %rbimpl_RB_TYPE_P_fastpath.exit.i, %15
  %26 = tail call i64 (i64, i64, i32, ...) @rb_funcall(i64 noundef %0, i64 noundef 43, i32 noundef 1, i64 noundef %1) #21
  br label %addv.exit

addv.exit:                                        ; preds = %10, %13, %24, %rbimpl_RB_TYPE_P_fastpath.exit.thread.i
  %.0.i = phi i64 [ %25, %24 ], [ %26, %rbimpl_RB_TYPE_P_fastpath.exit.thread.i ], [ %12, %10 ], [ %14, %13 ]
  %27 = icmp eq i64 %.0.i, 0
  %28 = and i64 %.0.i, 7
  %29 = icmp ne i64 %28, 0
  %30 = or i1 %27, %29
  br i1 %30, label %v2w.exit, label %rbimpl_RB_TYPE_P_fastpath.exit.i2

rbimpl_RB_TYPE_P_fastpath.exit.i2:                ; preds = %addv.exit
  %31 = inttoptr i64 %.0.i to ptr
  %32 = load i64, ptr %31, align 8, !tbaa !15
  %33 = and i64 %32, 31
  %34 = icmp eq i64 %33, 15
  br i1 %34, label %35, label %v2w.exit

35:                                               ; preds = %rbimpl_RB_TYPE_P_fastpath.exit.i2
  %36 = getelementptr inbounds nuw i8, ptr %31, i64 24
  %37 = load i64, ptr %36, align 8, !tbaa !17
  %.not.i = icmp eq i64 %37, 3
  br i1 %.not.i, label %38, label %v2w.exit

38:                                               ; preds = %35
  %39 = getelementptr inbounds nuw i8, ptr %31, i64 16
  %40 = load i64, ptr %39, align 8, !tbaa !19
  br label %v2w.exit

v2w.exit:                                         ; preds = %addv.exit, %rbimpl_RB_TYPE_P_fastpath.exit.i2, %35, %38
  %.06.i = phi i64 [ %.0.i, %35 ], [ %40, %38 ], [ %.0.i, %rbimpl_RB_TYPE_P_fastpath.exit.i2 ], [ %.0.i, %addv.exit ]
  ret i64 %.06.i
}